target datalayout = "e-m:e-p270:32:32-p271:32:32-p272:64:64-i64:64-i128:128-f80:128-n8:16:32:64-S128"
target triple = "x86_64-pc-linux-gnu"

%struct.lexbor_avl = type { ptr, ptr }

; Function Attrs: nounwind uwtable
define hidden ptr @lexbor_avl_node_destroy(ptr noundef %0, ptr noundef %1, i1 noundef zeroext %2) #0 {
  %4 = alloca ptr, align 8
  %5 = alloca ptr, align 8
  %6 = alloca ptr, align 8
  %7 = alloca i8, align 1
  store ptr %0, ptr %5, align 8
  store ptr %1, ptr %6, align 8
  %8 = zext i1 %2 to i8
  store i8 %8, ptr %7, align 1
  %9 = load ptr, ptr %6, align 8
  %10 = icmp eq ptr %9, null
  br i1 %10, label %11, label %12

11:                                               ; preds = %3
  store ptr null, ptr %4, align 8
  br label %23

12:                                               ; preds = %3
  %13 = load i8, ptr %7, align 1
  %14 = trunc i8 %13 to i1
  br i1 %14, label %15, label %21

15:                                               ; preds = %12
  %16 = load ptr, ptr %5, align 8
  %17 = getelementptr inbounds %struct.lexbor_avl, ptr %16, i32 0, i32 0
  %18 = load ptr, ptr %17, align 8
  %19 = load ptr, ptr %6, align 8
  %20 = call ptr @lexbor_dobject_free(ptr noundef %18, ptr noundef %19)
  store ptr %20, ptr %4, align 8
  br label %23

21:                                               ; preds = %12
  %22 = load ptr, ptr %6, align 8
  store ptr %22, ptr %4, align 8
  br label %23

23:                                               ; preds = %21, %15, %11
  %24 = load ptr, ptr %4, align 8
  ret ptr %24
}