; Function Attrs: nounwind uwtable
define hidden ptr @lexbor_avl_node_destroy(ptr nocapture noundef readonly %0, ptr noundef %1, i1 noundef zeroext %2) local_unnamed_addr #0 {
  %4 = icmp ne ptr %1, null
  %brmerge.not = and i1 %4, %2
  br i1 %brmerge.not, label %5, label %8

5:                                                ; preds = %3
  %6 = load ptr, ptr %0, align 8
  %7 = tail call ptr @lexbor_dobject_free(ptr noundef %6, ptr noundef nonnull %1) #8
  br label %8

8:                                                ; preds = %3, %5
  %.0 = phi ptr [ %7, %5 ], [ %1, %3 ]
  ret ptr %.0
}